; Function Attrs: mustprogress uwtable
define void @_ZNK32pxrInternal_v0_24__pxrReserved__21UsdValidationRegistry31GetValidatorMetadataForKeywordsERKSt6vectorINS_7TfTokenESaIS2_EE(ptr dead_on_unwind noalias writable sret(%"class.std::vector.133") align 8 %0, ptr noundef nonnull align 8 dereferenceable(392) %1, ptr noundef nonnull readonly align 8 captures(none) dereferenceable(24) %2) local_unnamed_addr #0 align 2 personality ptr @__gxx_personality_v0 {
  %4 = getelementptr inbounds nuw i8, ptr %1, i64 336
  br label %5

5:                                                ; preds = %5, %3
  %6 = tail call noundef i32 @pthread_rwlock_rdlock(ptr noundef nonnull align 8 dereferenceable(56) %4) #17
  switch i32 %6, label %_ZNSt11shared_lockISt12shared_mutexEC2ERS0_.exit [
    i32 11, label %5
    i32 35, label %7
  ]

7:                                                ; preds = %5
  tail call void @_ZSt20__throw_system_errori(i32 noundef 35) #20
  unreachable

_ZNSt11shared_lockISt12shared_mutexEC2ERS0_.exit: ; preds = %5
  %8 = getelementptr inbounds nuw i8, ptr %1, i64 168
  invoke void @_ZNK32pxrInternal_v0_24__pxrReserved__21UsdValidationRegistry29_GetValidatorMetadataForTokenERKSt13unordered_mapINS_7TfTokenESt6vectorIS2_SaIS2_EENS2_11HashFunctorESt8equal_toIS2_ESaISt4pairIKS2_S5_EEERKS5_(ptr dead_on_unwind writable sret(%"class.std::vector.133") align 8 %0, ptr noundef nonnull align 8 dereferenceable(392) %1, ptr noundef nonnull align 8 dereferenceable(56) %8, ptr noundef nonnull align 8 dereferenceable(24) %2)
          to label %_ZNSt11shared_lockISt12shared_mutexED2Ev.exit unwind label %_ZNSt11shared_lockISt12shared_mutexED2Ev.exit3

_ZNSt11shared_lockISt12shared_mutexED2Ev.exit:    ; preds = %_ZNSt11shared_lockISt12shared_mutexEC2ERS0_.exit
  %9 = tail call noundef i32 @pthread_rwlock_unlock(ptr noundef nonnull align 8 dereferenceable(56) %4) #17
  ret void

_ZNSt11shared_lockISt12shared_mutexED2Ev.exit3:   ; preds = %_ZNSt11shared_lockISt12shared_mutexEC2ERS0_.exit
  %10 = landingpad { ptr, i32 }
          cleanup
  %11 = tail call noundef i32 @pthread_rwlock_unlock(ptr noundef nonnull align 8 dereferenceable(56) %4) #17
  resume { ptr, i32 } %10
}